; Function Attrs: nofree nounwind uwtable
define range(i64 0, 4611686014132420610) i64 @tj3YUVPlaneSize(i32 noundef %0, i32 noundef %1, i32 noundef %2, i32 noundef %3, i32 noundef %4) local_unnamed_addr #6 {
  %6 = icmp slt i32 %1, 1
  %7 = icmp slt i32 %3, 1
  %or.cond = or i1 %6, %7
  %8 = icmp ugt i32 %4, 6
  %or.cond5 = or i1 %or.cond, %8
  br i1 %or.cond5, label %9, label %12

9:                                                ; preds = %5
  %10 = tail call align 16 ptr @llvm.threadlocal.address.p0(ptr align 16 @errStr)
  %11 = tail call i32 (ptr, i64, ptr, ...) @snprintf(ptr noundef nonnull dereferenceable(1) %10, i64 noundef 200, ptr noundef nonnull @.str, ptr noundef nonnull @tj3YUVPlaneSize.FUNCTION_NAME, ptr noundef nonnull @.str.1) #26
  br label %74

12:                                               ; preds = %5
  %13 = icmp slt i32 %0, 0
  br i1 %13, label %tj3YUVPlaneHeight.exit.thread.sink.split, label %14

14:                                               ; preds = %12
  %15 = icmp eq i32 %4, 3
  %16 = select i1 %15, i32 1, i32 3
  %.not.i = icmp ugt i32 %16, %0
  br i1 %.not.i, label %17, label %tj3YUVPlaneHeight.exit.thread.sink.split

17:                                               ; preds = %14
  %18 = zext nneg i32 %1 to i64
  %19 = zext nneg i32 %4 to i64
  %20 = getelementptr inbounds [7 x i32], ptr @tjMCUWidth, i64 0, i64 %19
  %21 = load i32, ptr %20, align 4
  %22 = sdiv i32 %21, 8
  %23 = sext i32 %22 to i64
  %24 = add nsw i64 %18, -1
  %25 = add nsw i64 %24, %23
  %26 = sub nsw i32 0, %22
  %27 = sext i32 %26 to i64
  %28 = and i64 %25, %27
  %29 = icmp eq i32 %0, 0
  br i1 %29, label %34, label %30

30:                                               ; preds = %17
  %31 = shl nsw i64 %28, 3
  %32 = sext i32 %21 to i64
  %33 = udiv i64 %31, %32
  br label %34

34:                                               ; preds = %30, %17
  %.0.i = phi i64 [ %33, %30 ], [ %28, %17 ]
  %35 = icmp ugt i64 %.0.i, 2147483647
  br i1 %35, label %.thread46, label %.thread

.thread46:                                        ; preds = %34
  %36 = tail call align 16 ptr @llvm.threadlocal.address.p0(ptr align 16 @errStr)
  %37 = tail call i32 (ptr, i64, ptr, ...) @snprintf(ptr noundef nonnull dereferenceable(1) %36, i64 noundef 200, ptr noundef nonnull @.str, ptr noundef nonnull @tj3YUVPlaneWidth.FUNCTION_NAME, ptr noundef nonnull @.str.30) #26
  br label %39

.thread:                                          ; preds = %34
  %38 = trunc nuw nsw i64 %.0.i to i32
  br label %39

39:                                               ; preds = %.thread46, %.thread
  %40 = phi i32 [ %38, %.thread ], [ 0, %.thread46 ]
  %41 = zext nneg i32 %3 to i64
  %42 = zext nneg i32 %4 to i64
  %43 = getelementptr inbounds [7 x i32], ptr @tjMCUHeight, i64 0, i64 %42
  %44 = load i32, ptr %43, align 4
  %45 = sdiv i32 %44, 8
  %46 = sext i32 %45 to i64
  %47 = add nsw i64 %41, -1
  %48 = add nsw i64 %47, %46
  %49 = sub nsw i32 0, %45
  %50 = sext i32 %49 to i64
  %51 = and i64 %48, %50
  %52 = icmp eq i32 %0, 0
  br i1 %52, label %57, label %53

53:                                               ; preds = %39
  %54 = shl nsw i64 %51, 3
  %55 = sext i32 %44 to i64
  %56 = udiv i64 %54, %55
  br label %57

57:                                               ; preds = %53, %39
  %.0.i40 = phi i64 [ %56, %53 ], [ %51, %39 ]
  %58 = icmp ugt i64 %.0.i40, 2147483647
  br i1 %58, label %tj3YUVPlaneHeight.exit.thread, label %tj3YUVPlaneHeight.exit

tj3YUVPlaneHeight.exit.thread.sink.split:         ; preds = %14, %12
  %59 = tail call align 16 ptr @llvm.threadlocal.address.p0(ptr align 16 @errStr)
  %60 = tail call i32 (ptr, i64, ptr, ...) @snprintf(ptr noundef nonnull dereferenceable(1) %59, i64 noundef 200, ptr noundef nonnull @.str, ptr noundef nonnull @tj3YUVPlaneWidth.FUNCTION_NAME, ptr noundef nonnull @.str.1) #26
  br label %tj3YUVPlaneHeight.exit.thread

tj3YUVPlaneHeight.exit.thread:                    ; preds = %tj3YUVPlaneHeight.exit.thread.sink.split, %57
  %.str.31.sink.i = phi ptr [ @.str.31, %57 ], [ @.str.1, %tj3YUVPlaneHeight.exit.thread.sink.split ]
  %61 = tail call align 16 ptr @llvm.threadlocal.address.p0(ptr align 16 @errStr)
  %62 = tail call i32 (ptr, i64, ptr, ...) @snprintf(ptr noundef nonnull dereferenceable(1) %61, i64 noundef 200, ptr noundef nonnull @.str, ptr noundef nonnull @tj3YUVPlaneHeight.FUNCTION_NAME, ptr noundef nonnull %.str.31.sink.i) #26
  br label %74

tj3YUVPlaneHeight.exit:                           ; preds = %57
  %63 = icmp eq i32 %40, 0
  %64 = icmp eq i64 %.0.i40, 0
  %or.cond7 = or i1 %63, %64
  br i1 %or.cond7, label %74, label %65

65:                                               ; preds = %tj3YUVPlaneHeight.exit
  %66 = icmp eq i32 %2, 0
  %67 = tail call i32 @llvm.abs.i32(i32 %2, i1 true)
  %.027 = select i1 %66, i32 %40, i32 %67
  %68 = zext nneg i32 %.027 to i64
  %69 = add nuw nsw i64 %.0.i40, 4294967295
  %70 = and i64 %69, 4294967295
  %71 = mul nuw nsw i64 %70, %68
  %72 = zext nneg i32 %40 to i64
  %73 = add nuw nsw i64 %71, %72
  br label %74

74:                                               ; preds = %tj3YUVPlaneHeight.exit.thread, %9, %65, %tj3YUVPlaneHeight.exit
  %.0 = phi i64 [ 0, %tj3YUVPlaneHeight.exit ], [ 0, %9 ], [ %73, %65 ], [ 0, %tj3YUVPlaneHeight.exit.thread ]
  ret i64 %.0
}